target datalayout = "e-m:e-p270:32:32-p271:32:32-p272:64:64-i64:64-i128:128-f80:128-n8:16:32:64-S128"
target triple = "x86_64-unknown-linux-gnu"

%"class.hermes::hbc::RuntimeFunctionHeader" = type { ptr }
%"class.hermes::vm::CodeBlock" = type <{ ptr, %"class.hermes::hbc::RuntimeFunctionHeader", ptr, i32, i32, i32, [4 x i8] }>
%"class.hermes::vm::RuntimeModule" = type { %"class.llvh::ilist_node", ptr, %"class.std::vector", %"class.hermes::vm::WeakRoot", %"class.std::vector.19", %"class.std::shared_ptr", %"union.hermes::vm::RuntimeModuleFlags", %"class.std::__cxx11::basic_string", i32, [4 x i8], %"class.llvh::DenseMap", %"class.llvh::DenseMap.25" }
%"class.llvh::ilist_node" = type { %"class.llvh::ilist_node_impl" }
%"class.llvh::ilist_node_impl" = type { %"class.llvh::ilist_node_base" }
%"class.llvh::ilist_node_base" = type { ptr, ptr }
%"class.std::vector" = type { %"struct.std::_Vector_base" }
%"struct.std::_Vector_base" = type { %"struct.std::_Vector_base<hermes::vm::RootSymbolID, std::allocator<hermes::vm::RootSymbolID>>::_Vector_impl" }
%"struct.std::_Vector_base<hermes::vm::RootSymbolID, std::allocator<hermes::vm::RootSymbolID>>::_Vector_impl" = type { %"struct.std::_Vector_base<hermes::vm::RootSymbolID, std::allocator<hermes::vm::RootSymbolID>>::_Vector_impl_data" }
%"struct.std::_Vector_base<hermes::vm::RootSymbolID, std::allocator<hermes::vm::RootSymbolID>>::_Vector_impl_data" = type { ptr, ptr, ptr }
%"class.hermes::vm::WeakRoot" = type { %"class.hermes::vm::WeakRootBase" }
%"class.hermes::vm::WeakRootBase" = type { %"class.hermes::vm::CompressedPointer" }
%"class.hermes::vm::CompressedPointer" = type { %"class.hermes::vm::BasedPointer" }
%"class.hermes::vm::BasedPointer" = type { i32 }
%"class.std::vector.19" = type { %"struct.std::_Vector_base.20" }
%"struct.std::_Vector_base.20" = type { %"struct.std::_Vector_base<hermes::vm::CodeBlock *, std::allocator<hermes::vm::CodeBlock *>>::_Vector_impl" }
%"struct.std::_Vector_base<hermes::vm::CodeBlock *, std::allocator<hermes::vm::CodeBlock *>>::_Vector_impl" = type { %"struct.std::_Vector_base<hermes::vm::CodeBlock *, std::allocator<hermes::vm::CodeBlock *>>::_Vector_impl_data" }
%"struct.std::_Vector_base<hermes::vm::CodeBlock *, std::allocator<hermes::vm::CodeBlock *>>::_Vector_impl_data" = type { ptr, ptr, ptr }
%"class.std::shared_ptr" = type { %"class.std::__shared_ptr" }
%"class.std::__shared_ptr" = type { ptr, %"class.std::__shared_count" }
%"class.std::__shared_count" = type { ptr }
%"union.hermes::vm::RuntimeModuleFlags" = type { %struct.anon.24 }
%struct.anon.24 = type { i8 }
%"class.std::__cxx11::basic_string" = type { %"struct.std::__cxx11::basic_string<char>::_Alloc_hider", i64, %union.anon }
%"struct.std::__cxx11::basic_string<char>::_Alloc_hider" = type { ptr }
%union.anon = type { i64, [8 x i8] }
%"class.llvh::DenseMap" = type <{ ptr, i32, i32, i32, [4 x i8] }>
%"class.llvh::DenseMap.25" = type <{ ptr, i32, i32, i32, [4 x i8] }>

; Function Attrs: mustprogress nounwind uwtable
define linkonce_odr hidden noundef ptr @_ZNKSt12__shared_ptrIN6hermes3hbc20BCProviderFromBufferELN9__gnu_cxx12_Lock_policyE2EE3getEv(ptr noundef nonnull align 8 dereferenceable(16) %this) #0 comdat align 2 {
entry:
  %this.addr = alloca ptr, align 8
  store ptr %this, ptr %this.addr, align 8
  %this1 = load ptr, ptr %this.addr, align 8
  %_M_ptr = getelementptr inbounds %"class.std::__shared_ptr", ptr %this1, i32 0, i32 0
  %0 = load ptr, ptr %_M_ptr, align 8
  ret ptr %0
}

; Function Attrs: mustprogress nounwind uwtable
define linkonce_odr hidden noundef ptr @_ZN6hermes2vm13RuntimeModule11getBytecodeEv(ptr noundef nonnull align 8 dereferenceable(192) %this) #0 comdat align 2 {
entry:
  %this.addr = alloca ptr, align 8
  store ptr %this, ptr %this.addr, align 8
  %this1 = load ptr, ptr %this.addr, align 8
  %bcProvider_ = getelementptr inbounds %"class.hermes::vm::RuntimeModule", ptr %this1, i32 0, i32 5
  %call = call noundef ptr @_ZNKSt12__shared_ptrIN6hermes3hbc20BCProviderFromBufferELN9__gnu_cxx12_Lock_policyE2EE3getEv(ptr noundef nonnull align 8 dereferenceable(16) %bcProvider_) #5
  ret ptr %call
}

; Function Attrs: mustprogress nounwind uwtable
define linkonce_odr hidden noundef ptr @_ZNK6hermes2vm9CodeBlock16getRuntimeModuleEv(ptr noundef nonnull align 8 dereferenceable(40) %this) #0 comdat align 2 {
entry:
  %this.addr = alloca ptr, align 8
  store ptr %this, ptr %this.addr, align 8
  %this1 = load ptr, ptr %this.addr, align 8
  %runtimeModule_ = getelementptr inbounds %"class.hermes::vm::CodeBlock", ptr %this1, i32 0, i32 0
  %0 = load ptr, ptr %runtimeModule_, align 8
  ret ptr %0
}

; Function Attrs: mustprogress nounwind uwtable
define hidden noundef i32 @_ZNK6hermes2vm9CodeBlock16getVirtualOffsetEv(ptr noundef nonnull align 8 dereferenceable(40) %this) #0 align 2 {
entry:
  %this.addr = alloca ptr, align 8
  store ptr %this, ptr %this.addr, align 8
  %this1 = load ptr, ptr %this.addr, align 8
  %call = call noundef ptr @_ZNK6hermes2vm9CodeBlock16getRuntimeModuleEv(ptr noundef nonnull align 8 dereferenceable(40) %this1)
  %call2 = call noundef ptr @_ZN6hermes2vm13RuntimeModule11getBytecodeEv(ptr noundef nonnull align 8 dereferenceable(192) %call)
  %functionID_ = getelementptr inbounds %"class.hermes::vm::CodeBlock", ptr %this1, i32 0, i32 3
  %0 = load i32, ptr %functionID_, align 8
  %call3 = call noundef i32 @_ZNK6hermes3hbc14BCProviderBase27getVirtualOffsetForFunctionEj(ptr noundef nonnull align 8 dereferenceable(280) %call2, i32 noundef %0)
  ret i32 %call3
}